target datalayout = "e-m:e-p270:32:32-p271:32:32-p272:64:64-i64:64-i128:128-f80:128-n8:16:32:64-S128"
target triple = "x86_64-pc-linux-gnu"

%struct.redisObject = type { i32, i32, ptr }
%struct.sdshdr8 = type { i8, i8, i8, [0 x i8] }
%struct.sdshdr16 = type <{ i16, i16, i8, [0 x i8] }>
%struct.sdshdr32 = type <{ i32, i32, i8, [0 x i8] }>
%struct.sdshdr64 = type <{ i64, i64, i8, [0 x i8] }>

@.str.1 = private unnamed_addr constant [8 x i8] c"t_set.c\00", align 1
@.str.3 = private unnamed_addr constant [21 x i8] c"Unknown set encoding\00", align 1

; Function Attrs: inlinehint nounwind uwtable
define internal i64 @sdslen(ptr noundef %0) #3 {
  %2 = alloca i64, align 8
  %3 = alloca ptr, align 8
  %4 = alloca i8, align 1
  %5 = alloca i32, align 4
  store ptr %0, ptr %3, align 8, !tbaa !5
  call void @llvm.lifetime.start.p0(i64 1, ptr %4) #10
  %6 = load ptr, ptr %3, align 8, !tbaa !5
  %7 = getelementptr inbounds i8, ptr %6, i64 -1
  %8 = load i8, ptr %7, align 1, !tbaa !51
  store i8 %8, ptr %4, align 1, !tbaa !51
  %9 = load i8, ptr %4, align 1, !tbaa !51
  %10 = zext i8 %9 to i32
  %11 = and i32 %10, 7
  switch i32 %11, label %40 [
    i32 0, label %12
    i32 1, label %17
    i32 2, label %23
    i32 3, label %29
    i32 4, label %35
  ]

12:                                               ; preds = %1
  %13 = load i8, ptr %4, align 1, !tbaa !51
  %14 = zext i8 %13 to i32
  %15 = ashr i32 %14, 3
  %16 = sext i32 %15 to i64
  store i64 %16, ptr %2, align 8
  store i32 1, ptr %5, align 4
  br label %41

17:                                               ; preds = %1
  %18 = load ptr, ptr %3, align 8, !tbaa !5
  %19 = getelementptr inbounds i8, ptr %18, i64 -3
  %20 = getelementptr inbounds nuw %struct.sdshdr8, ptr %19, i32 0, i32 0
  %21 = load i8, ptr %20, align 1, !tbaa !51
  %22 = zext i8 %21 to i64
  store i64 %22, ptr %2, align 8
  store i32 1, ptr %5, align 4
  br label %41

23:                                               ; preds = %1
  %24 = load ptr, ptr %3, align 8, !tbaa !5
  %25 = getelementptr inbounds i8, ptr %24, i64 -5
  %26 = getelementptr inbounds nuw %struct.sdshdr16, ptr %25, i32 0, i32 0
  %27 = load i16, ptr %26, align 1, !tbaa !54
  %28 = zext i16 %27 to i64
  store i64 %28, ptr %2, align 8
  store i32 1, ptr %5, align 4
  br label %41

29:                                               ; preds = %1
  %30 = load ptr, ptr %3, align 8, !tbaa !5
  %31 = getelementptr inbounds i8, ptr %30, i64 -9
  %32 = getelementptr inbounds nuw %struct.sdshdr32, ptr %31, i32 0, i32 0
  %33 = load i32, ptr %32, align 1, !tbaa !45
  %34 = zext i32 %33 to i64
  store i64 %34, ptr %2, align 8
  store i32 1, ptr %5, align 4
  br label %41

35:                                               ; preds = %1
  %36 = load ptr, ptr %3, align 8, !tbaa !5
  %37 = getelementptr inbounds i8, ptr %36, i64 -17
  %38 = getelementptr inbounds nuw %struct.sdshdr64, ptr %37, i32 0, i32 0
  %39 = load i64, ptr %38, align 1, !tbaa !10
  store i64 %39, ptr %2, align 8
  store i32 1, ptr %5, align 4
  br label %41

40:                                               ; preds = %1
  store i64 0, ptr %2, align 8
  store i32 1, ptr %5, align 4
  br label %41

41:                                               ; preds = %40, %35, %29, %23, %17, %12
  call void @llvm.lifetime.end.p0(i64 1, ptr %4) #10
  %42 = load i64, ptr %2, align 8
  ret i64 %42
}

; Function Attrs: nounwind uwtable
define dso_local i32 @setTypeRandomElement(ptr noundef %0, ptr noundef %1, ptr noundef %2, ptr noundef %3) #0 {
  %5 = alloca ptr, align 8
  %6 = alloca ptr, align 8
  %7 = alloca ptr, align 8
  %8 = alloca ptr, align 8
  %9 = alloca ptr, align 8
  %10 = alloca ptr, align 8
  %11 = alloca i32, align 4
  %12 = alloca ptr, align 8
  %13 = alloca i32, align 4
  store ptr %0, ptr %5, align 8, !tbaa !41
  store ptr %1, ptr %6, align 8, !tbaa !63
  store ptr %2, ptr %7, align 8, !tbaa !64
  store ptr %3, ptr %8, align 8, !tbaa !64
  %14 = load ptr, ptr %5, align 8, !tbaa !41
  %15 = load i32, ptr %14, align 8
  %16 = lshr i32 %15, 4
  %17 = and i32 %16, 15
  %18 = icmp eq i32 %17, 2
  br i1 %18, label %19, label %32

19:                                               ; preds = %4
  call void @llvm.lifetime.start.p0(i64 8, ptr %9) #10
  %20 = load ptr, ptr %5, align 8, !tbaa !41
  %21 = getelementptr inbounds nuw %struct.redisObject, ptr %20, i32 0, i32 2
  %22 = load ptr, ptr %21, align 8, !tbaa !43
  %23 = call ptr @dictGetFairRandomKey(ptr noundef %22)
  store ptr %23, ptr %9, align 8, !tbaa !66
  %24 = load ptr, ptr %9, align 8, !tbaa !66
  %25 = call ptr @dictGetKey(ptr noundef %24)
  %26 = load ptr, ptr %6, align 8, !tbaa !63
  store ptr %25, ptr %26, align 8, !tbaa !5
  %27 = load ptr, ptr %6, align 8, !tbaa !63
  %28 = load ptr, ptr %27, align 8, !tbaa !5
  %29 = call i64 @sdslen(ptr noundef %28)
  %30 = load ptr, ptr %7, align 8, !tbaa !64
  store i64 %29, ptr %30, align 8, !tbaa !10
  %31 = load ptr, ptr %8, align 8, !tbaa !64
  store i64 -123456789, ptr %31, align 8, !tbaa !10
  call void @llvm.lifetime.end.p0(i64 8, ptr %9) #10
  br label %75

32:                                               ; preds = %4
  %33 = load ptr, ptr %5, align 8, !tbaa !41
  %34 = load i32, ptr %33, align 8
  %35 = lshr i32 %34, 4
  %36 = and i32 %35, 15
  %37 = icmp eq i32 %36, 6
  br i1 %37, label %38, label %45

38:                                               ; preds = %32
  %39 = load ptr, ptr %5, align 8, !tbaa !41
  %40 = getelementptr inbounds nuw %struct.redisObject, ptr %39, i32 0, i32 2
  %41 = load ptr, ptr %40, align 8, !tbaa !43
  %42 = call i64 @intsetRandom(ptr noundef %41)
  %43 = load ptr, ptr %8, align 8, !tbaa !64
  store i64 %42, ptr %43, align 8, !tbaa !10
  %44 = load ptr, ptr %6, align 8, !tbaa !63
  store ptr null, ptr %44, align 8, !tbaa !5
  br label %74

45:                                               ; preds = %32
  %46 = load ptr, ptr %5, align 8, !tbaa !41
  %47 = load i32, ptr %46, align 8
  %48 = lshr i32 %47, 4
  %49 = and i32 %48, 15
  %50 = icmp eq i32 %49, 11
  br i1 %50, label %51, label %72

51:                                               ; preds = %45
  call void @llvm.lifetime.start.p0(i64 8, ptr %10) #10
  %52 = load ptr, ptr %5, align 8, !tbaa !41
  %53 = getelementptr inbounds nuw %struct.redisObject, ptr %52, i32 0, i32 2
  %54 = load ptr, ptr %53, align 8, !tbaa !43
  store ptr %54, ptr %10, align 8, !tbaa !5
  call void @llvm.lifetime.start.p0(i64 4, ptr %11) #10
  %55 = call i32 @rand() #10
  %56 = sext i32 %55 to i64
  %57 = load ptr, ptr %10, align 8, !tbaa !5
  %58 = call i64 @lpLength(ptr noundef %57)
  %59 = urem i64 %56, %58
  %60 = trunc i64 %59 to i32
  store i32 %60, ptr %11, align 4, !tbaa !45
  call void @llvm.lifetime.start.p0(i64 8, ptr %12) #10
  %61 = load ptr, ptr %10, align 8, !tbaa !5
  %62 = load i32, ptr %11, align 4, !tbaa !45
  %63 = sext i32 %62 to i64
  %64 = call ptr @lpSeek(ptr noundef %61, i64 noundef %63)
  store ptr %64, ptr %12, align 8, !tbaa !5
  call void @llvm.lifetime.start.p0(i64 4, ptr %13) #10
  %65 = load ptr, ptr %12, align 8, !tbaa !5
  %66 = load ptr, ptr %8, align 8, !tbaa !64
  %67 = call ptr @lpGetValue(ptr noundef %65, ptr noundef %13, ptr noundef %66)
  %68 = load ptr, ptr %6, align 8, !tbaa !63
  store ptr %67, ptr %68, align 8, !tbaa !5
  %69 = load i32, ptr %13, align 4, !tbaa !45
  %70 = zext i32 %69 to i64
  %71 = load ptr, ptr %7, align 8, !tbaa !64
  store i64 %70, ptr %71, align 8, !tbaa !10
  call void @llvm.lifetime.end.p0(i64 4, ptr %13) #10
  call void @llvm.lifetime.end.p0(i64 8, ptr %12) #10
  call void @llvm.lifetime.end.p0(i64 4, ptr %11) #10
  call void @llvm.lifetime.end.p0(i64 8, ptr %10) #10
  br label %73

72:                                               ; preds = %45
  call void (ptr, i32, ptr, ...) @_serverPanic(ptr noundef @.str.1, i32 noundef 429, ptr noundef @.str.3)
  call void @abort() #11
  unreachable

73:                                               ; preds = %51
  br label %74

74:                                               ; preds = %73, %38
  br label %75

75:                                               ; preds = %74, %19
  %76 = load ptr, ptr %5, align 8, !tbaa !41
  %77 = load i32, ptr %76, align 8
  %78 = lshr i32 %77, 4
  %79 = and i32 %78, 15
  ret i32 %79
}