; Function Attrs: nounwind uwtable
define dso_local range(i32 0, 16) i32 @setTypeRandomElement(ptr noundef readonly captures(none) %0, ptr noundef writeonly captures(none) %1, ptr noundef writeonly captures(none) %2, ptr noundef %3) local_unnamed_addr #0 {
  %5 = alloca i32, align 4
  %6 = load i32, ptr %0, align 8
  %7 = lshr i32 %6, 4
  %8 = and i32 %7, 15
  switch i32 %8, label %52 [
    i32 2, label %9
    i32 6, label %36
    i32 11, label %40
  ]

9:                                                ; preds = %4
  %10 = getelementptr inbounds nuw i8, ptr %0, i64 8
  %11 = load ptr, ptr %10, align 8, !tbaa !38
  %12 = tail call ptr @dictGetFairRandomKey(ptr noundef %11) #10
  %13 = tail call ptr @dictGetKey(ptr noundef %12) #10
  store ptr %13, ptr %1, align 8, !tbaa !49
  %14 = getelementptr inbounds i8, ptr %13, i64 -1
  %15 = load i8, ptr %14, align 1, !tbaa !54
  %16 = zext i8 %15 to i32
  %17 = and i32 %16, 7
  switch i32 %17, label %sdslen.exit [
    i32 0, label %18
    i32 1, label %21
    i32 2, label %25
    i32 3, label %29
    i32 4, label %33
  ]

18:                                               ; preds = %9
  %19 = lshr i32 %16, 3
  %20 = zext nneg i32 %19 to i64
  br label %sdslen.exit

21:                                               ; preds = %9
  %22 = getelementptr inbounds i8, ptr %13, i64 -3
  %23 = load i8, ptr %22, align 1, !tbaa !54
  %24 = zext i8 %23 to i64
  br label %sdslen.exit

25:                                               ; preds = %9
  %26 = getelementptr inbounds i8, ptr %13, i64 -5
  %27 = load i16, ptr %26, align 1, !tbaa !55
  %28 = zext i16 %27 to i64
  br label %sdslen.exit

29:                                               ; preds = %9
  %30 = getelementptr inbounds i8, ptr %13, i64 -9
  %31 = load i32, ptr %30, align 1, !tbaa !57
  %32 = zext i32 %31 to i64
  br label %sdslen.exit

33:                                               ; preds = %9
  %34 = getelementptr inbounds i8, ptr %13, i64 -17
  %35 = load i64, ptr %34, align 1, !tbaa !50
  br label %sdslen.exit

sdslen.exit:                                      ; preds = %9, %18, %21, %25, %29, %33
  %.0.i = phi i64 [ %35, %33 ], [ %32, %29 ], [ %28, %25 ], [ %24, %21 ], [ %20, %18 ], [ 0, %9 ]
  store i64 %.0.i, ptr %2, align 8, !tbaa !50
  store i64 -123456789, ptr %3, align 8, !tbaa !50
  br label %53

36:                                               ; preds = %4
  %37 = getelementptr inbounds nuw i8, ptr %0, i64 8
  %38 = load ptr, ptr %37, align 8, !tbaa !38
  %39 = tail call i64 @intsetRandom(ptr noundef %38) #10
  store i64 %39, ptr %3, align 8, !tbaa !50
  store ptr null, ptr %1, align 8, !tbaa !49
  br label %53

40:                                               ; preds = %4
  %41 = getelementptr inbounds nuw i8, ptr %0, i64 8
  %42 = load ptr, ptr %41, align 8, !tbaa !38
  %43 = tail call i32 @rand() #10
  %44 = sext i32 %43 to i64
  %45 = tail call i64 @lpLength(ptr noundef %42) #10
  %46 = urem i64 %44, %45
  %sext = shl i64 %46, 32
  %47 = ashr exact i64 %sext, 32
  %48 = tail call ptr @lpSeek(ptr noundef %42, i64 noundef %47) #10
  call void @llvm.lifetime.start.p0(i64 4, ptr nonnull %5) #10
  %49 = call ptr @lpGetValue(ptr noundef %48, ptr noundef nonnull %5, ptr noundef %3) #10
  store ptr %49, ptr %1, align 8, !tbaa !49
  %50 = load i32, ptr %5, align 4, !tbaa !57
  %51 = zext i32 %50 to i64
  store i64 %51, ptr %2, align 8, !tbaa !50
  call void @llvm.lifetime.end.p0(i64 4, ptr nonnull %5) #10
  br label %53

52:                                               ; preds = %4
  tail call void (ptr, i32, ptr, ...) @_serverPanic(ptr noundef nonnull @.str.1, i32 noundef 429, ptr noundef nonnull @.str.3) #10
  tail call void @abort() #11
  unreachable

53:                                               ; preds = %36, %40, %sdslen.exit
  %54 = load i32, ptr %0, align 8
  %55 = lshr i32 %54, 4
  %56 = and i32 %55, 15
  ret i32 %56
}